; Function Attrs: mustprogress nofree norecurse nosync nounwind willreturn memory(read, inaccessiblemem: none) uwtable
define noundef zeroext i1 @_ZNK3gmx11Constraints24havePerturbedConstraintsEv(ptr noundef nonnull readonly align 8 captures(none) dereferenceable(8) %0) local_unnamed_addr #5 align 2 {
  %2 = load ptr, ptr %0, align 8, !tbaa !4
  %3 = getelementptr inbounds nuw i8, ptr %2, i64 120
  %4 = load ptr, ptr %3, align 8, !tbaa !56
  %5 = getelementptr inbounds nuw i8, ptr %4, i64 40
  %6 = getelementptr inbounds nuw i8, ptr %4, i64 16
  %7 = getelementptr inbounds nuw i8, ptr %4, i64 24
  %8 = load ptr, ptr %7, align 8, !tbaa !57
  %9 = load ptr, ptr %6, align 8, !tbaa !60
  %.not15.not = icmp eq ptr %8, %9
  br i1 %.not15.not, label %.critedge, label %.lr.ph.preheader

.lr.ph.preheader:                                 ; preds = %1
  %10 = ptrtoint ptr %8 to i64
  %11 = ptrtoint ptr %9 to i64
  %12 = sub i64 %10, %11
  %13 = ashr exact i64 %12, 2
  %umax = tail call i64 @llvm.umax.i64(i64 %13, i64 1)
  br label %.lr.ph

.lr.ph:                                           ; preds = %.lr.ph.preheader, %24
  %.01316 = phi i64 [ %25, %24 ], [ 0, %.lr.ph.preheader ]
  %14 = getelementptr inbounds nuw i32, ptr %9, i64 %.01316
  %15 = load i32, ptr %14, align 4, !tbaa !61
  %16 = and i32 %15, -2
  %switch = icmp eq i32 %16, 62
  br i1 %switch, label %17, label %24

17:                                               ; preds = %.lr.ph
  %18 = load ptr, ptr %5, align 8, !tbaa !62
  %19 = getelementptr inbounds nuw %union.t_iparams, ptr %18, i64 %.01316
  %20 = load float, ptr %19, align 4, !tbaa !65
  %21 = getelementptr inbounds nuw i8, ptr %19, i64 4
  %22 = load float, ptr %21, align 4, !tbaa !65
  %23 = fcmp une float %20, %22
  br i1 %23, label %.critedge, label %24

24:                                               ; preds = %.lr.ph, %17
  %25 = add nuw i64 %.01316, 1
  %exitcond.not = icmp eq i64 %25, %umax
  br i1 %exitcond.not, label %.critedge, label %.lr.ph, !llvm.loop !66

.critedge:                                        ; preds = %17, %24, %1
  %.not.lcssa = phi i1 [ false, %1 ], [ false, %24 ], [ true, %17 ]
  ret i1 %.not.lcssa
}